target datalayout = "e-m:e-p270:32:32-p271:32:32-p272:64:64-i64:64-i128:128-f80:128-n8:16:32:64-S128"
target triple = "x86_64-pc-linux-gnu"

; Function Attrs: inlinehint mustprogress uwtable
define internal noundef i32 @_ZN6icu_7712_GLOBAL__N_112appendResultEPDsiiiPKDsijPNS_5EditsE(ptr noundef %0, i32 noundef %1, i32 noundef %2, i32 noundef %3, ptr noundef %4, i32 noundef %5, i32 noundef %6, ptr noundef %7) #1 {
  %9 = alloca i32, align 4
  %10 = alloca ptr, align 8
  %11 = alloca i32, align 4
  %12 = alloca i32, align 4
  %13 = alloca i32, align 4
  %14 = alloca ptr, align 8
  %15 = alloca i32, align 4
  %16 = alloca i32, align 4
  %17 = alloca ptr, align 8
  %18 = alloca i32, align 4
  %19 = alloca i32, align 4
  %20 = alloca i32, align 4
  %21 = alloca i8, align 1
  store ptr %0, ptr %10, align 8, !tbaa !10
  store i32 %1, ptr %11, align 4, !tbaa !3
  store i32 %2, ptr %12, align 4, !tbaa !3
  store i32 %3, ptr %13, align 4, !tbaa !3
  store ptr %4, ptr %14, align 8, !tbaa !10
  store i32 %5, ptr %15, align 4, !tbaa !3
  store i32 %6, ptr %16, align 4, !tbaa !3
  store ptr %7, ptr %17, align 8, !tbaa !12
  call void @llvm.lifetime.start.p0(i64 4, ptr %18) #9
  call void @llvm.lifetime.start.p0(i64 4, ptr %19) #9
  %22 = load i32, ptr %13, align 4, !tbaa !3
  %23 = icmp slt i32 %22, 0
  br i1 %23, label %24, label %56

24:                                               ; preds = %8
  %25 = load ptr, ptr %17, align 8, !tbaa !12
  %26 = icmp ne ptr %25, null
  br i1 %26, label %27, label %30

27:                                               ; preds = %24
  %28 = load ptr, ptr %17, align 8, !tbaa !12
  %29 = load i32, ptr %15, align 4, !tbaa !3
  call void @_ZN6icu_775Edits12addUnchangedEi(ptr noundef nonnull align 8 dereferenceable(232) %28, i32 noundef %29)
  br label %30

30:                                               ; preds = %27, %24
  %31 = load i32, ptr %16, align 4, !tbaa !3
  %32 = and i32 %31, 16384
  %33 = icmp ne i32 %32, 0
  br i1 %33, label %34, label %36

34:                                               ; preds = %30
  %35 = load i32, ptr %11, align 4, !tbaa !3
  store i32 %35, ptr %9, align 4
  store i32 1, ptr %20, align 4
  br label %195

36:                                               ; preds = %30
  %37 = load i32, ptr %13, align 4, !tbaa !3
  %38 = xor i32 %37, -1
  store i32 %38, ptr %18, align 4, !tbaa !3
  %39 = load i32, ptr %11, align 4, !tbaa !3
  %40 = load i32, ptr %12, align 4, !tbaa !3
  %41 = icmp slt i32 %39, %40
  br i1 %41, label %42, label %54

42:                                               ; preds = %36
  %43 = load i32, ptr %18, align 4, !tbaa !3
  %44 = icmp sle i32 %43, 65535
  br i1 %44, label %45, label %54

45:                                               ; preds = %42
  %46 = load i32, ptr %18, align 4, !tbaa !3
  %47 = trunc i32 %46 to i16
  %48 = load ptr, ptr %10, align 8, !tbaa !10
  %49 = load i32, ptr %11, align 4, !tbaa !3
  %50 = add nsw i32 %49, 1
  store i32 %50, ptr %11, align 4, !tbaa !3
  %51 = sext i32 %49 to i64
  %52 = getelementptr inbounds i16, ptr %48, i64 %51
  store i16 %47, ptr %52, align 2, !tbaa !24
  %53 = load i32, ptr %11, align 4, !tbaa !3
  store i32 %53, ptr %9, align 4
  store i32 1, ptr %20, align 4
  br label %195

54:                                               ; preds = %42, %36
  %55 = load i32, ptr %15, align 4, !tbaa !3
  store i32 %55, ptr %19, align 4, !tbaa !3
  br label %97

56:                                               ; preds = %8
  %57 = load i32, ptr %13, align 4, !tbaa !3
  %58 = icmp sle i32 %57, 31
  br i1 %58, label %59, label %61

59:                                               ; preds = %56
  store i32 -1, ptr %18, align 4, !tbaa !3
  %60 = load i32, ptr %13, align 4, !tbaa !3
  store i32 %60, ptr %19, align 4, !tbaa !3
  br label %89

61:                                               ; preds = %56
  %62 = load i32, ptr %11, align 4, !tbaa !3
  %63 = load i32, ptr %12, align 4, !tbaa !3
  %64 = icmp slt i32 %62, %63
  br i1 %64, label %65, label %83

65:                                               ; preds = %61
  %66 = load i32, ptr %13, align 4, !tbaa !3
  %67 = icmp sle i32 %66, 65535
  br i1 %67, label %68, label %83

68:                                               ; preds = %65
  %69 = load i32, ptr %13, align 4, !tbaa !3
  %70 = trunc i32 %69 to i16
  %71 = load ptr, ptr %10, align 8, !tbaa !10
  %72 = load i32, ptr %11, align 4, !tbaa !3
  %73 = add nsw i32 %72, 1
  store i32 %73, ptr %11, align 4, !tbaa !3
  %74 = sext i32 %72 to i64
  %75 = getelementptr inbounds i16, ptr %71, i64 %74
  store i16 %70, ptr %75, align 2, !tbaa !24
  %76 = load ptr, ptr %17, align 8, !tbaa !12
  %77 = icmp ne ptr %76, null
  br i1 %77, label %78, label %81

78:                                               ; preds = %68
  %79 = load ptr, ptr %17, align 8, !tbaa !12
  %80 = load i32, ptr %15, align 4, !tbaa !3
  call void @_ZN6icu_775Edits10addReplaceEii(ptr noundef nonnull align 8 dereferenceable(232) %79, i32 noundef %80, i32 noundef 1)
  br label %81

81:                                               ; preds = %78, %68
  %82 = load i32, ptr %11, align 4, !tbaa !3
  store i32 %82, ptr %9, align 4
  store i32 1, ptr %20, align 4
  br label %195

83:                                               ; preds = %65, %61
  %84 = load i32, ptr %13, align 4, !tbaa !3
  store i32 %84, ptr %18, align 4, !tbaa !3
  %85 = load i32, ptr %18, align 4, !tbaa !3
  %86 = icmp ule i32 %85, 65535
  %87 = select i1 %86, i32 1, i32 2
  store i32 %87, ptr %19, align 4, !tbaa !3
  br label %88

88:                                               ; preds = %83
  br label %89

89:                                               ; preds = %88, %59
  %90 = load ptr, ptr %17, align 8, !tbaa !12
  %91 = icmp ne ptr %90, null
  br i1 %91, label %92, label %96

92:                                               ; preds = %89
  %93 = load ptr, ptr %17, align 8, !tbaa !12
  %94 = load i32, ptr %15, align 4, !tbaa !3
  %95 = load i32, ptr %19, align 4, !tbaa !3
  call void @_ZN6icu_775Edits10addReplaceEii(ptr noundef nonnull align 8 dereferenceable(232) %93, i32 noundef %94, i32 noundef %95)
  br label %96

96:                                               ; preds = %92, %89
  br label %97

97:                                               ; preds = %96, %54
  %98 = load i32, ptr %19, align 4, !tbaa !3
  %99 = load i32, ptr %11, align 4, !tbaa !3
  %100 = sub nsw i32 2147483647, %99
  %101 = icmp sgt i32 %98, %100
  br i1 %101, label %102, label %103

102:                                              ; preds = %97
  store i32 -1, ptr %9, align 4
  store i32 1, ptr %20, align 4
  br label %195

103:                                              ; preds = %97
  %104 = load i32, ptr %11, align 4, !tbaa !3
  %105 = load i32, ptr %12, align 4, !tbaa !3
  %106 = icmp slt i32 %104, %105
  br i1 %106, label %107, label %189

107:                                              ; preds = %103
  %108 = load i32, ptr %18, align 4, !tbaa !3
  %109 = icmp sge i32 %108, 0
  br i1 %109, label %110, label %161

110:                                              ; preds = %107
  call void @llvm.lifetime.start.p0(i64 1, ptr %21) #9
  store i8 0, ptr %21, align 1, !tbaa !35
  br label %111

111:                                              ; preds = %110
  %112 = load i32, ptr %18, align 4, !tbaa !3
  %113 = icmp ule i32 %112, 65535
  br i1 %113, label %114, label %122

114:                                              ; preds = %111
  %115 = load i32, ptr %18, align 4, !tbaa !3
  %116 = trunc i32 %115 to i16
  %117 = load ptr, ptr %10, align 8, !tbaa !10
  %118 = load i32, ptr %11, align 4, !tbaa !3
  %119 = add nsw i32 %118, 1
  store i32 %119, ptr %11, align 4, !tbaa !3
  %120 = sext i32 %118 to i64
  %121 = getelementptr inbounds i16, ptr %117, i64 %120
  store i16 %116, ptr %121, align 2, !tbaa !24
  br label %151

122:                                              ; preds = %111
  %123 = load i32, ptr %18, align 4, !tbaa !3
  %124 = icmp ule i32 %123, 1114111
  br i1 %124, label %125, label %149

125:                                              ; preds = %122
  %126 = load i32, ptr %11, align 4, !tbaa !3
  %127 = add nsw i32 %126, 1
  %128 = load i32, ptr %12, align 4, !tbaa !3
  %129 = icmp slt i32 %127, %128
  br i1 %129, label %130, label %149

130:                                              ; preds = %125
  %131 = load i32, ptr %18, align 4, !tbaa !3
  %132 = ashr i32 %131, 10
  %133 = add nsw i32 %132, 55232
  %134 = trunc i32 %133 to i16
  %135 = load ptr, ptr %10, align 8, !tbaa !10
  %136 = load i32, ptr %11, align 4, !tbaa !3
  %137 = add nsw i32 %136, 1
  store i32 %137, ptr %11, align 4, !tbaa !3
  %138 = sext i32 %136 to i64
  %139 = getelementptr inbounds i16, ptr %135, i64 %138
  store i16 %134, ptr %139, align 2, !tbaa !24
  %140 = load i32, ptr %18, align 4, !tbaa !3
  %141 = and i32 %140, 1023
  %142 = or i32 %141, 56320
  %143 = trunc i32 %142 to i16
  %144 = load ptr, ptr %10, align 8, !tbaa !10
  %145 = load i32, ptr %11, align 4, !tbaa !3
  %146 = add nsw i32 %145, 1
  store i32 %146, ptr %11, align 4, !tbaa !3
  %147 = sext i32 %145 to i64
  %148 = getelementptr inbounds i16, ptr %144, i64 %147
  store i16 %143, ptr %148, align 2, !tbaa !24
  br label %150

149:                                              ; preds = %125, %122
  store i8 1, ptr %21, align 1, !tbaa !35
  br label %150

150:                                              ; preds = %149, %130
  br label %151

151:                                              ; preds = %150, %114
  br label %152

152:                                              ; preds = %151
  br label %153

153:                                              ; preds = %152
  %154 = load i8, ptr %21, align 1, !tbaa !35
  %155 = icmp ne i8 %154, 0
  br i1 %155, label %156, label %160

156:                                              ; preds = %153
  %157 = load i32, ptr %19, align 4, !tbaa !3
  %158 = load i32, ptr %11, align 4, !tbaa !3
  %159 = add nsw i32 %158, %157
  store i32 %159, ptr %11, align 4, !tbaa !3
  br label %160

160:                                              ; preds = %156, %153
  call void @llvm.lifetime.end.p0(i64 1, ptr %21) #9
  br label %188

161:                                              ; preds = %107
  %162 = load i32, ptr %11, align 4, !tbaa !3
  %163 = load i32, ptr %19, align 4, !tbaa !3
  %164 = add nsw i32 %162, %163
  %165 = load i32, ptr %12, align 4, !tbaa !3
  %166 = icmp sle i32 %164, %165
  br i1 %166, label %167, label %183

167:                                              ; preds = %161
  br label %168

168:                                              ; preds = %171, %167
  %169 = load i32, ptr %19, align 4, !tbaa !3
  %170 = icmp sgt i32 %169, 0
  br i1 %170, label %171, label %182

171:                                              ; preds = %168
  %172 = load ptr, ptr %14, align 8, !tbaa !10
  %173 = getelementptr inbounds nuw i16, ptr %172, i32 1
  store ptr %173, ptr %14, align 8, !tbaa !10
  %174 = load i16, ptr %172, align 2, !tbaa !24
  %175 = load ptr, ptr %10, align 8, !tbaa !10
  %176 = load i32, ptr %11, align 4, !tbaa !3
  %177 = add nsw i32 %176, 1
  store i32 %177, ptr %11, align 4, !tbaa !3
  %178 = sext i32 %176 to i64
  %179 = getelementptr inbounds i16, ptr %175, i64 %178
  store i16 %174, ptr %179, align 2, !tbaa !24
  %180 = load i32, ptr %19, align 4, !tbaa !3
  %181 = add nsw i32 %180, -1
  store i32 %181, ptr %19, align 4, !tbaa !3
  br label %168, !llvm.loop !41

182:                                              ; preds = %168
  br label %187

183:                                              ; preds = %161
  %184 = load i32, ptr %19, align 4, !tbaa !3
  %185 = load i32, ptr %11, align 4, !tbaa !3
  %186 = add nsw i32 %185, %184
  store i32 %186, ptr %11, align 4, !tbaa !3
  br label %187

187:                                              ; preds = %183, %182
  br label %188

188:                                              ; preds = %187, %160
  br label %193

189:                                              ; preds = %103
  %190 = load i32, ptr %19, align 4, !tbaa !3
  %191 = load i32, ptr %11, align 4, !tbaa !3
  %192 = add nsw i32 %191, %190
  store i32 %192, ptr %11, align 4, !tbaa !3
  br label %193

193:                                              ; preds = %189, %188
  %194 = load i32, ptr %11, align 4, !tbaa !3
  store i32 %194, ptr %9, align 4
  store i32 1, ptr %20, align 4
  br label %195

195:                                              ; preds = %193, %102, %81, %45, %34
  call void @llvm.lifetime.end.p0(i64 4, ptr %19) #9
  call void @llvm.lifetime.end.p0(i64 4, ptr %18) #9
  %196 = load i32, ptr %9, align 4
  ret i32 %196
}