; Function Attrs: inlinehint mustprogress uwtable
define internal fastcc noundef i32 @_ZN6icu_7712_GLOBAL__N_112appendResultEPDsiiiPKDsijPNS_5EditsE(ptr noundef writeonly captures(none) %0, i32 noundef %1, i32 noundef %2, i32 noundef %3, ptr noundef readonly captures(none) %4, i32 noundef %5, i32 noundef %6, ptr noundef %7) unnamed_addr #5 {
  %9 = icmp slt i32 %3, 0
  br i1 %9, label %10, label %23

10:                                               ; preds = %8
  %.not92 = icmp eq ptr %7, null
  br i1 %.not92, label %12, label %11

11:                                               ; preds = %10
  tail call void @_ZN6icu_775Edits12addUnchangedEi(ptr noundef nonnull align 8 dereferenceable(232) %7, i32 noundef %5)
  br label %12

12:                                               ; preds = %11, %10
  %13 = and i32 %6, 16384
  %.not93 = icmp eq i32 %13, 0
  br i1 %.not93, label %14, label %.loopexit

14:                                               ; preds = %12
  %15 = xor i32 %3, -1
  %16 = icmp slt i32 %1, %2
  %17 = icmp samesign ugt i32 %3, -65537
  %or.cond = and i1 %16, %17
  br i1 %or.cond, label %18, label %38

18:                                               ; preds = %14
  %19 = trunc nuw i32 %15 to i16
  %20 = add nsw i32 %1, 1
  %21 = sext i32 %1 to i64
  %22 = getelementptr inbounds i16, ptr %0, i64 %21
  store i16 %19, ptr %22, align 2, !tbaa !14
  br label %.loopexit

23:                                               ; preds = %8
  %24 = icmp samesign ult i32 %3, 32
  br i1 %24, label %36, label %25

25:                                               ; preds = %23
  %26 = icmp slt i32 %1, %2
  %27 = icmp samesign ult i32 %3, 65536
  %or.cond3 = and i1 %26, %27
  br i1 %or.cond3, label %28, label %34

28:                                               ; preds = %25
  %29 = trunc nuw i32 %3 to i16
  %30 = add nsw i32 %1, 1
  %31 = sext i32 %1 to i64
  %32 = getelementptr inbounds i16, ptr %0, i64 %31
  store i16 %29, ptr %32, align 2, !tbaa !14
  %.not = icmp eq ptr %7, null
  br i1 %.not, label %.loopexit, label %33

33:                                               ; preds = %28
  tail call void @_ZN6icu_775Edits10addReplaceEii(ptr noundef nonnull align 8 dereferenceable(232) %7, i32 noundef %5, i32 noundef 1)
  br label %.loopexit

34:                                               ; preds = %25
  %35 = select i1 %27, i32 1, i32 2
  br label %36

36:                                               ; preds = %23, %34
  %.172 = phi i32 [ %3, %34 ], [ -1, %23 ]
  %.1 = phi i32 [ %35, %34 ], [ %3, %23 ]
  %.not91 = icmp eq ptr %7, null
  br i1 %.not91, label %38, label %37

37:                                               ; preds = %36
  tail call void @_ZN6icu_775Edits10addReplaceEii(ptr noundef nonnull align 8 dereferenceable(232) %7, i32 noundef %5, i32 noundef %.1)
  br label %38

38:                                               ; preds = %14, %36, %37
  %.071 = phi i32 [ %.172, %37 ], [ %.172, %36 ], [ %15, %14 ]
  %.070 = phi i32 [ %.1, %37 ], [ %.1, %36 ], [ %5, %14 ]
  %39 = sub nsw i32 2147483647, %1
  %40 = icmp sgt i32 %.070, %39
  br i1 %40, label %.loopexit, label %41

41:                                               ; preds = %38
  %42 = icmp slt i32 %1, %2
  br i1 %42, label %43, label %80

43:                                               ; preds = %41
  %44 = icmp sgt i32 %.071, -1
  br i1 %44, label %45, label %71

45:                                               ; preds = %43
  %46 = icmp samesign ult i32 %.071, 65536
  br i1 %46, label %47, label %52

47:                                               ; preds = %45
  %48 = trunc nuw i32 %.071 to i16
  %49 = add nsw i32 %1, 1
  %50 = sext i32 %1 to i64
  %51 = getelementptr inbounds i16, ptr %0, i64 %50
  store i16 %48, ptr %51, align 2, !tbaa !14
  br label %.loopexit

52:                                               ; preds = %45
  %53 = icmp samesign ult i32 %.071, 1114112
  br i1 %53, label %54, label %69

54:                                               ; preds = %52
  %55 = add nsw i32 %1, 1
  %56 = icmp slt i32 %55, %2
  br i1 %56, label %57, label %69

57:                                               ; preds = %54
  %58 = lshr i32 %.071, 10
  %59 = trunc nuw i32 %58 to i16
  %60 = add nuw nsw i16 %59, -10304
  %61 = sext i32 %1 to i64
  %62 = getelementptr inbounds i16, ptr %0, i64 %61
  store i16 %60, ptr %62, align 2, !tbaa !14
  %63 = trunc i32 %.071 to i16
  %64 = and i16 %63, 1023
  %65 = or disjoint i16 %64, -9216
  %66 = add nsw i32 %1, 2
  %67 = sext i32 %55 to i64
  %68 = getelementptr inbounds i16, ptr %0, i64 %67
  store i16 %65, ptr %68, align 2, !tbaa !14
  br label %.loopexit

69:                                               ; preds = %52, %54
  %70 = add nsw i32 %.070, %1
  br label %.loopexit

71:                                               ; preds = %43
  %72 = add nsw i32 %.070, %1
  %.not94 = icmp sgt i32 %72, %2
  br i1 %.not94, label %.loopexit, label %.preheader

.preheader:                                       ; preds = %71
  %73 = icmp sgt i32 %.070, 0
  br i1 %73, label %.lr.ph.preheader, label %.loopexit

.lr.ph.preheader:                                 ; preds = %.preheader
  %74 = sext i32 %1 to i64
  br label %.lr.ph

.lr.ph:                                           ; preds = %.lr.ph.preheader, %.lr.ph
  %indvars.iv = phi i64 [ %74, %.lr.ph.preheader ], [ %indvars.iv.next, %.lr.ph ]
  %.2101 = phi i32 [ %.070, %.lr.ph.preheader ], [ %78, %.lr.ph ]
  %.07799 = phi ptr [ %4, %.lr.ph.preheader ], [ %75, %.lr.ph ]
  %75 = getelementptr inbounds nuw i8, ptr %.07799, i64 2
  %76 = load i16, ptr %.07799, align 2, !tbaa !14
  %indvars.iv.next = add nsw i64 %indvars.iv, 1
  %77 = getelementptr inbounds i16, ptr %0, i64 %indvars.iv
  store i16 %76, ptr %77, align 2, !tbaa !14
  %78 = add nsw i32 %.2101, -1
  %79 = icmp samesign ugt i32 %.2101, 1
  br i1 %79, label %.lr.ph, label %.loopexit.loopexit, !llvm.loop !26

80:                                               ; preds = %41
  %81 = add nsw i32 %.070, %1
  br label %.loopexit

.loopexit.loopexit:                               ; preds = %.lr.ph
  %82 = trunc nsw i64 %indvars.iv.next to i32
  br label %.loopexit

.loopexit:                                        ; preds = %.loopexit.loopexit, %.preheader, %69, %47, %57, %80, %71, %38, %28, %33, %12, %18
  %.073 = phi i32 [ %20, %18 ], [ %1, %12 ], [ %30, %33 ], [ %30, %28 ], [ -1, %38 ], [ %81, %80 ], [ %72, %71 ], [ %70, %69 ], [ %66, %57 ], [ %49, %47 ], [ %1, %.preheader ], [ %82, %.loopexit.loopexit ]
  ret i32 %.073
}